(dp1
S'topCoords'
p2
(dp3
S'length'
p4
I512
sS'unique'
p5
I00
sS'sortable'
p6
I3
sS'sql'
p7
S'FLOAT'
p8
sS'notnull'
p9
I00
sS'type'
p10
S'float'
p11
ssS'leftCoords'
p12
(dp13
g4
I512
sg5
I00
sg6
I4
sg7
S'FLOAT'
p14
sg9
I00
sg10
g11
ssS'id'
p15
(dp16
g4
I512
sg5
I00
sg6
I1
sg7
S'INT AUTO_INCREMENT NOT NULL'
p17
sg9
I00
sg10
g15
ssS'time'
p18
(dp19
g4
I512
sg5
I00
sg6
I2
sg7
S'FLOAT'
p20
sg9
I00
sg10
g11
ss.